DESCRIPTION	"Main Aqsis rendering library"
EXPORTS
	Parse
	StandardDeclarations
	CleanupDeclarations
	CreateRIBEngine
	DestroyRIBEngine
	AppendFrames
	ClearFrames

	??0CqColor@Aqsis@@QAE@XZ
	??0CqFile@Aqsis@@QAE@PBD0@Z
	??0CqFile@Aqsis@@QAE@XZ
	??0CqMatrix@Aqsis@@QAE@ABV01@@Z
	??0CqMatrix@Aqsis@@QAE@ABVCqVector3D@1@@Z
	??0CqMatrix@Aqsis@@QAE@MMM@Z
	??0CqMatrix@Aqsis@@QAE@MMMMMMM@Z
	??0CqMatrix@Aqsis@@QAE@MMMMMMMMMMMMMMMM@Z
	??0CqMatrix@Aqsis@@QAE@MVCqVector3D@1@@Z
	??0CqMatrix@Aqsis@@QAE@QAM@Z
	??0CqMatrix@Aqsis@@QAE@QAY03M@Z
	??0CqMatrix@Aqsis@@QAE@XZ
	??0CqSplineCubic@Aqsis@@QAE@H@Z
	??0CqString@Aqsis@@QAE@ABV01@@Z
	??0CqString@Aqsis@@QAE@PBD@Z
	??0CqString@Aqsis@@QAE@XZ
	??0CqVector2D@Aqsis@@QAE@ABVCqVector3D@1@@Z
	??0CqVector2D@Aqsis@@QAE@XZ
	??0CqVector3D@Aqsis@@QAE@ABVCqColor@1@@Z
	??0CqVector3D@Aqsis@@QAE@ABVCqVector4D@1@@Z
	??0CqVector3D@Aqsis@@QAE@MMM@Z
	??0CqVector3D@Aqsis@@QAE@XZ
	??0CqVector4D@Aqsis@@QAE@MMMM@Z
	??0CqVector4D@Aqsis@@QAE@XZ
	??1CqBitVector@Aqsis@@QAE@XZ
	??1CqColor@Aqsis@@QAE@XZ
	??1CqFile@Aqsis@@UAE@XZ
	??1CqMatrix@Aqsis@@QAE@XZ
	??1CqPluginBase@Aqsis@@UAE@XZ
	??1CqSplineCubic@Aqsis@@UAE@XZ
	??1CqVector2D@Aqsis@@QAE@XZ
	??1CqVector3D@Aqsis@@QAE@XZ
	??1CqVector4D@Aqsis@@QAE@XZ
	??4CqMatrix@Aqsis@@QAEAAV01@ABV01@@Z
	??4CqMatrix@Aqsis@@QAEAAV01@QAM@Z
	??4CqMatrix@Aqsis@@QAEAAV01@QAY03M@Z
	??4CqVector2D@Aqsis@@QAEAAV01@ABVCqVector3D@1@@Z
	??4CqVector2D@Aqsis@@QAEAAV01@ABVCqVector4D@1@@Z
	??4CqVector3D@Aqsis@@QAEAAV01@ABVCqColor@1@@Z
	??4CqVector3D@Aqsis@@QAEAAV01@ABVCqVector4D@1@@Z
	??4CqVector4D@Aqsis@@QAEAAV01@ABVCqVector3D@1@@Z
	??6Aqsis@@YAAAV?$basic_ostream@DU?$char_traits@D@std@@@std@@AAV12@ABVCqString@0@@Z
	??8CqColor@Aqsis@@QBE_NABV01@@Z
	??ACqVector4D@Aqsis@@QAEAAMH@Z
	??DAqsis@@YA?AVCqMatrix@0@MABV10@@Z
	??DAqsis@@YA?AVCqString@0@ABV10@0@Z
	??DAqsis@@YA?AVCqString@0@ABV10@M@Z
	??DAqsis@@YA?AVCqVector4D@0@ABV10@ABVCqMatrix@0@@Z
	??DCqMatrix@Aqsis@@QBE?AV01@ABV01@@Z
	??DCqMatrix@Aqsis@@QBE?AV01@M@Z
	??DCqMatrix@Aqsis@@QBE?AVCqVector3D@1@ABV21@@Z
	??DCqMatrix@Aqsis@@QBE?AVCqVector4D@1@ABV21@@Z
	??GAqsis@@YA?AVCqString@0@ABV10@0@Z
	??GCqMatrix@Aqsis@@QBE?AV01@ABV01@@Z
	??GCqMatrix@Aqsis@@QBE?AV01@ABVCqVector4D@1@@Z
	??HAqsis@@YA?AVCqString@0@ABV10@0@Z
	??HAqsis@@YA?AVCqString@0@ABV10@D@Z
	??HAqsis@@YA?AVCqString@0@ABV10@PBD@Z
	??HAqsis@@YA?AVCqString@0@DABV10@@Z
	??HAqsis@@YA?AVCqString@0@PBDABV10@@Z
	??HCqMatrix@Aqsis@@QBE?AV01@ABV01@@Z
	??HCqMatrix@Aqsis@@QBE?AV01@ABVCqVector4D@1@@Z
	??KAqsis@@YA?AVCqString@0@ABV10@0@Z
	??LAqsis@@YA?AVCqVector3D@0@ABV10@0@Z
	??LAqsis@@YA?AVCqVector4D@0@ABV10@0@Z
	??XCqMatrix@Aqsis@@QAEAAV01@ABV01@@Z
	??XCqMatrix@Aqsis@@QAEAAV01@M@Z
	??YCqMatrix@Aqsis@@QAEAAV01@ABV01@@Z
	??YCqMatrix@Aqsis@@QAEAAV01@ABVCqVector4D@1@@Z
	??YCqString@Aqsis@@QAEAAV01@ABV01@@Z
	??YCqString@Aqsis@@QAEAAV01@D@Z
	??YCqString@Aqsis@@QAEAAV01@H@Z
	??YCqString@Aqsis@@QAEAAV01@M@Z
	??YCqString@Aqsis@@QAEAAV01@PBD@Z
	??ZCqMatrix@Aqsis@@QAEAAV01@ABV01@@Z
	??ZCqMatrix@Aqsis@@QAEAAV01@ABVCqVector4D@1@@Z
	??_1CqVector3D@Aqsis@@QAEAAV01@ABV01@@Z

	?Canonize@CqBitVector@Aqsis@@QAEXXZ
	?Count@CqBitVector@Aqsis@@QAEHXZ
	?DLClose@CqPluginBase@Aqsis@@IAEXPAX@Z
	?DLError@CqPluginBase@Aqsis@@QAE?BVCqString@2@XZ
	?DLOpen@CqPluginBase@Aqsis@@IAEPAXPAVCqString@2@@Z
	?DLSym@CqPluginBase@Aqsis@@IAEPAXPAXPAVCqString@2@@Z
	?Determinant@CqMatrix@Aqsis@@QBEMXZ
	?Difference@CqBitVector@Aqsis@@QAEAAV12@AAV12@@Z
	?Evaluate@CqSplineCubic@Aqsis@@UBE?AVCqVector4D@2@M@Z
	?EvaluateFD@CqSplineCubic@Aqsis@@UAE?AVCqVector4D@2@XZ
	?ExpandEscapes@CqString@Aqsis@@QBE?AV12@XZ
	?FCellNoise1@CqCellNoise@Aqsis@@QAEMM@Z
	?FCellNoise2@CqCellNoise@Aqsis@@QAEMMM@Z
	?FCellNoise3@CqCellNoise@Aqsis@@QAEMABVCqVector3D@2@@Z
	?FCellNoise4@CqCellNoise@Aqsis@@QAEMABVCqVector3D@2@M@Z
	?Format@CqString@Aqsis@@QAAAAV12@PBDZZ
	?Glob@CqFile@Aqsis@@SA?AV?$list@PAVCqString@Aqsis@@V?$allocator@PAVCqString@Aqsis@@@std@@@std@@ABVCqString@2@@Z
	?Identity@CqMatrix@Aqsis@@QAEXXZ
	?InitFD@CqSplineCubic@Aqsis@@UAEXH@Z
	?Intersect@CqBitVector@Aqsis@@QAEAAV12@AAV12@@Z
	?Inverse@CqMatrix@Aqsis@@QBE?AV12@XZ
	?Magnitude@CqVector3D@Aqsis@@QBEMXZ
	?NextState@CqRandom@Aqsis@@IAEXXZ
	?Normalise@CqMatrix@Aqsis@@QAEXXZ
	?Open@CqFile@Aqsis@@QAEXPBD0H@Z
	?PCellNoise1@CqCellNoise@Aqsis@@QAE?AVCqVector3D@2@M@Z
	?PCellNoise2@CqCellNoise@Aqsis@@QAE?AVCqVector3D@2@MM@Z
	?PCellNoise3@CqCellNoise@Aqsis@@QAE?AVCqVector3D@2@ABV32@@Z
	?PCellNoise4@CqCellNoise@Aqsis@@QAE?AVCqVector3D@2@ABV32@M@Z
	?PreMultiply@CqMatrix@Aqsis@@QAEAAV12@ABV12@@Z
	?PreMultiply@CqMatrix@Aqsis@@QBE?AVCqVector4D@2@ABV32@@Z
	?RandomInt@CqRandom@Aqsis@@QAEIXZ
	?Reseed@CqRandom@Aqsis@@QAEXI@Z
	?Rotate@CqMatrix@Aqsis@@QAEXMVCqVector3D@2@@Z
	?Scale@CqMatrix@Aqsis@@QAEXM@Z
	?Scale@CqMatrix@Aqsis@@QAEXMMM@Z
	?ShearX@CqMatrix@Aqsis@@QAEXMM@Z
	?ShearY@CqMatrix@Aqsis@@QAEXMM@Z
	?ShearZ@CqMatrix@Aqsis@@QAEXMM@Z
	?Skew@CqMatrix@Aqsis@@QAEXMMMMMMM@Z
	?Translate@CqMatrix@Aqsis@@QAEXABVCqVector3D@2@@Z
	?Translate@CqMatrix@Aqsis@@QAEXMMM@Z
	?TranslateEscapes@CqString@Aqsis@@QBE?AV12@XZ
	?Transpose@CqMatrix@Aqsis@@QBE?AV12@XZ
	?Union@CqBitVector@Aqsis@@QAEAAV12@AAV12@@Z
	?Unit@CqVector2D@Aqsis@@QAEXXZ
	?XYZtorgb@CqColor@Aqsis@@QBE?AV12@XZ
	?YIQtorgb@CqColor@Aqsis@@QBE?AV12@XZ
	?cSections@CqSplineCubic@Aqsis@@UBEHXZ
	?gBSplineBasis@Aqsis@@3PAY03MA
	?gBezierBasis@Aqsis@@3PAY03MA
	?gCatmullRomBasis@Aqsis@@3PAY03MA
	?gColBlack@Aqsis@@3VCqColor@1@A
	?gColBlue@Aqsis@@3VCqColor@1@A
	?gColGreen@Aqsis@@3VCqColor@1@A
	?gColRed@Aqsis@@3VCqColor@1@A
	?gColWhite@Aqsis@@3VCqColor@1@A
	?gHermiteBasis@Aqsis@@3PAY03MA
	?gPowerBasis@Aqsis@@3PAY03MA
	?hsltorgb@CqColor@Aqsis@@QBE?AV12@XZ
	?hsvtorgb@CqColor@Aqsis@@QBE?AV12@XZ
	?rgbtoXYZ@CqColor@Aqsis@@QBE?AV12@XZ
	?rgbtoYIQ@CqColor@Aqsis@@QBE?AV12@XZ
	?rgbtohsl@CqColor@Aqsis@@QBE?AV12@XZ
	?rgbtohsv@CqColor@Aqsis@@QBE?AV12@XZ
	?rgbtoxyY@CqColor@Aqsis@@QBE?AV12@XZ
	?xyYtorgb@CqColor@Aqsis@@QBE?AV12@XZ
	??0show_level_buf@Aqsis@@QAE@AAV?$basic_ostream@DU?$char_traits@D@std@@@std@@@Z
	??0fold_duplicates_buf@Aqsis@@QAE@AAV?$basic_ostream@DU?$char_traits@D@std@@@std@@@Z
	??0timestamp_buf@Aqsis@@QAE@AAV?$basic_ostream@DU?$char_traits@D@std@@@std@@@Z
	??0reset_level_buf@Aqsis@@QAE@AAV?$basic_ostream@DU?$char_traits@D@std@@@std@@@Z
	??0filter_by_level_buf@Aqsis@@QAE@W4log_level_t@1@AAV?$basic_ostream@DU?$char_traits@D@std@@@std@@@Z
	??0color_level_buf@Aqsis@@QAE@AAV?$basic_ostream@DU?$char_traits@D@std@@@std@@@Z
	??0ansi_buf@Aqsis@@QAE@AAV?$basic_ostream@DU?$char_traits@D@std@@@std@@@Z
	
	?parseShadeOpTableEntry@CqDSORepository@Aqsis@@MAEPAUSqDSOExternalCall@2@PAXPAUSqShadeOp@@@Z
	?getShadeOpMethods@CqDSORepository@Aqsis@@MAEPAV?$list@PAUSqDSOExternalCall@Aqsis@@V?$allocator@PAUSqDSOExternalCall@Aqsis@@@std@@@std@@PAVCqString@2@@Z
	?DefaultSurface@CqShaderVM@Aqsis@@UAEXXZ
	?DeleteTemporaryStorage@CqShaderVM@Aqsis@@UAEXPAUIqShaderData@2@@Z
	?CreateTemporaryStorage@CqShaderVM@Aqsis@@UAEPAUIqShaderData@2@W4EqVariableType@2@W4EqVariableClass@2@@Z
	?FindArgument@CqShaderVM@Aqsis@@UAEPAUIqShaderData@2@ABVCqString@2@@Z
	?SetArgument@CqShaderVM@Aqsis@@UAEXABVCqString@2@W4EqVariableType@2@0PAX@Z
	?SetArgument@CqShaderVM@Aqsis@@UAEXPAVCqParameter@2@PAUIqSurface@2@@Z
	?GetShaderVarCount@CqShaderVM@Aqsis@@QAEHXZ
	?ExecuteInit@CqShaderVM@Aqsis@@QAEXXZ
	?LoadProgram@CqShaderVM@Aqsis@@QAEXPAV?$basic_istream@DU?$char_traits@D@std@@@std@@@Z
	?m_samples@CqShaderStack@Aqsis@@1HA
	?m_maxsamples@CqShaderStack@Aqsis@@1HA
	?Statistics@CqShaderStack@Aqsis@@SAXXZ
	??4CqShaderVM@Aqsis@@QAEAAV01@ABV01@@Z
	?GetShaderVarAt@CqShaderVM@Aqsis@@QAEPAUIqShaderData@2@H@Z
	?CreateVariable@CqShaderVM@Aqsis@@UAEPAUIqShaderData@2@W4EqVariableType@2@W4EqVariableClass@2@ABVCqString@2@_N3@Z
	?CreateVariableArray@CqShaderVM@Aqsis@@UAEPAUIqShaderData@2@W4EqVariableType@2@W4EqVariableClass@2@ABVCqString@2@H_N3@Z
	?info@Aqsis@@YAAAV?$basic_ostream@DU?$char_traits@D@std@@@std@@AAV23@@Z
	??1CqRibBinaryDecoder@librib@@QAE@XZ
	??0CqRibBinaryDecoder@librib@@QAE@PAU_iobuf@@H@Z
	?SetParserState@librib@@YAXAAVCqRIBParserState@1@@Z
	??0Engine@librib2ri@@QAE@XZ
	?GetParserState@librib@@YA?AVCqRIBParserState@1@XZ
	??0CqRibBinaryDecoder@librib@@QAE@V?$basic_string@DU?$char_traits@D@std@@V?$allocator@D@2@@std@@H@Z
	ParseOpenStream
	?error@Aqsis@@YAAAV?$basic_ostream@DU?$char_traits@D@std@@@std@@AAV23@@Z	
