EXPORTS
	??0CqFile@Aqsis@@QAE@PBD0@Z
	??0CqMatrix@Aqsis@@QAE@ABV01@@Z
	??0CqMatrix@Aqsis@@QAE@ABVCqVector3D@1@@Z
	??0CqMatrix@Aqsis@@QAE@MMM@Z
	??0CqMatrix@Aqsis@@QAE@MMMMMMM@Z
	??0CqMatrix@Aqsis@@QAE@MMMMMMMMMMMMMMMM@Z
	??0CqMatrix@Aqsis@@QAE@MVCqVector3D@1@@Z
	??0CqMatrix@Aqsis@@QAE@QAM@Z
	??0CqMatrix@Aqsis@@QAE@QAY03M@Z
	??0CqMatrix@Aqsis@@QAE@XZ
	??0CqSplineCubic@Aqsis@@QAE@H@Z
	??0CqVector2D@Aqsis@@QAE@ABVCqVector3D@1@@Z
	??0CqVector3D@Aqsis@@QAE@ABVCqColor@1@@Z
	??0CqVector3D@Aqsis@@QAE@ABVCqVector4D@1@@Z
	??0CqVector4D@Aqsis@@QAE@MMMM@Z
	??1CqFile@Aqsis@@UAE@XZ
	??1CqMatrix@Aqsis@@QAE@XZ
	??1CqPluginBase@Aqsis@@UAE@XZ
	??1CqSplineCubic@Aqsis@@UAE@XZ
	??1CqVector3D@Aqsis@@QAE@XZ
	??1CqVector4D@Aqsis@@QAE@XZ
	??4CqMatrix@Aqsis@@QAEAAV01@ABV01@@Z
	??4CqMatrix@Aqsis@@QAEAAV01@QAM@Z
	??4CqMatrix@Aqsis@@QAEAAV01@QAY03M@Z
	??4CqVector2D@Aqsis@@QAEAAV01@ABVCqVector3D@1@@Z
	??4CqVector2D@Aqsis@@QAEAAV01@ABVCqVector4D@1@@Z
	??4CqVector3D@Aqsis@@QAEAAV01@ABVCqColor@1@@Z
	??4CqVector3D@Aqsis@@QAEAAV01@ABVCqVector4D@1@@Z
	??6Aqsis@@YAAAV?$basic_ostream@DU?$char_traits@D@std@@@std@@AAV12@ABVCqString@0@@Z
	??ACqVector4D@Aqsis@@QAEAAMH@Z
	??DAqsis@@YA?AVCqMatrix@0@MABV10@@Z
	??DAqsis@@YA?AVCqString@0@ABV10@0@Z
	??DAqsis@@YA?AVCqString@0@ABV10@M@Z
	??DAqsis@@YA?AVCqVector4D@0@ABV10@ABVCqMatrix@0@@Z
	??DCqMatrix@Aqsis@@QBE?AV01@ABV01@@Z
	??DCqMatrix@Aqsis@@QBE?AV01@M@Z
	??DCqMatrix@Aqsis@@QBE?AVCqVector3D@1@ABV21@@Z
	??DCqMatrix@Aqsis@@QBE?AVCqVector4D@1@ABV21@@Z
	??GAqsis@@YA?AVCqString@0@ABV10@0@Z
	??GCqMatrix@Aqsis@@QBE?AV01@ABV01@@Z
	??GCqMatrix@Aqsis@@QBE?AV01@ABVCqVector4D@1@@Z
	??HAqsis@@YA?AVCqString@0@ABV10@0@Z
	??HAqsis@@YA?AVCqString@0@ABV10@D@Z
	??HAqsis@@YA?AVCqString@0@ABV10@PBD@Z
	??HAqsis@@YA?AVCqString@0@DABV10@@Z
	??HAqsis@@YA?AVCqString@0@PBDABV10@@Z
	??HCqMatrix@Aqsis@@QBE?AV01@ABV01@@Z
	??HCqMatrix@Aqsis@@QBE?AV01@ABVCqVector4D@1@@Z
	??KAqsis@@YA?AVCqString@0@ABV10@0@Z
	??LAqsis@@YA?AVCqVector3D@0@ABV10@0@Z
	??XCqMatrix@Aqsis@@QAEAAV01@ABV01@@Z
	??XCqMatrix@Aqsis@@QAEAAV01@M@Z
	??YCqMatrix@Aqsis@@QAEAAV01@ABV01@@Z
	??YCqMatrix@Aqsis@@QAEAAV01@ABVCqVector4D@1@@Z
	??YCqString@Aqsis@@QAEAAV01@ABV01@@Z
	??YCqString@Aqsis@@QAEAAV01@D@Z
	??YCqString@Aqsis@@QAEAAV01@H@Z
	??YCqString@Aqsis@@QAEAAV01@M@Z
	??YCqString@Aqsis@@QAEAAV01@PBD@Z
	??ZCqMatrix@Aqsis@@QAEAAV01@ABV01@@Z
	??ZCqMatrix@Aqsis@@QAEAAV01@ABVCqVector4D@1@@Z
	??_1CqVector3D@Aqsis@@QAEAAV01@ABV01@@Z

	?Count@CqBitVector@Aqsis@@QAEHXZ
	?DLClose@CqPluginBase@Aqsis@@IAEXPAX@Z
	?DLError@CqPluginBase@Aqsis@@QAE?BVCqString@2@XZ
	?DLOpen@CqPluginBase@Aqsis@@IAEPAXPAVCqString@2@@Z
	?DLSym@CqPluginBase@Aqsis@@IAEPAXPAXPAVCqString@2@@Z
	?Determinant@CqMatrix@Aqsis@@QBEMXZ
	?Difference@CqBitVector@Aqsis@@QAEAAV12@AAV12@@Z
	?Evaluate@CqSplineCubic@Aqsis@@UBE?AVCqVector4D@2@M@Z
	?EvaluateFD@CqSplineCubic@Aqsis@@UAE?AVCqVector4D@2@XZ
	?ExpandEscapes@CqString@Aqsis@@QBE?AV12@XZ
	?FCellNoise1@CqCellNoise@Aqsis@@QAEMM@Z
	?FCellNoise2@CqCellNoise@Aqsis@@QAEMMM@Z
	?FCellNoise3@CqCellNoise@Aqsis@@QAEMABVCqVector3D@2@@Z
	?FCellNoise4@CqCellNoise@Aqsis@@QAEMABVCqVector3D@2@M@Z
	?Format@CqString@Aqsis@@QAAAAV12@PBDZZ
	?Glob@CqFile@Aqsis@@SA?AV?$list@PAVCqString@Aqsis@@V?$allocator@PAVCqString@Aqsis@@@std@@@std@@ABVCqString@2@@Z
	?Identity@CqMatrix@Aqsis@@QAEXXZ
	?InitFD@CqSplineCubic@Aqsis@@UAEXH@Z
	?Intersect@CqBitVector@Aqsis@@QAEAAV12@AAV12@@Z
	?Inverse@CqMatrix@Aqsis@@QBE?AV12@XZ
	?Magnitude@CqVector3D@Aqsis@@QBEMXZ
	?NextState@CqRandom@Aqsis@@IAEXXZ
	?Normalise@CqMatrix@Aqsis@@QAEXXZ
	?Open@CqFile@Aqsis@@QAEXPBD0H@Z
	?PCellNoise1@CqCellNoise@Aqsis@@QAE?AVCqVector3D@2@M@Z
	?PCellNoise2@CqCellNoise@Aqsis@@QAE?AVCqVector3D@2@MM@Z
	?PCellNoise3@CqCellNoise@Aqsis@@QAE?AVCqVector3D@2@ABV32@@Z
	?PCellNoise4@CqCellNoise@Aqsis@@QAE?AVCqVector3D@2@ABV32@M@Z
	?PreMultiply@CqMatrix@Aqsis@@QAEAAV12@ABV12@@Z
	?PreMultiply@CqMatrix@Aqsis@@QBE?AVCqVector4D@2@ABV32@@Z
	?RandomInt@CqRandom@Aqsis@@QAEIXZ
	?Reseed@CqRandom@Aqsis@@QAEXI@Z
	?Rotate@CqMatrix@Aqsis@@QAEXMVCqVector3D@2@@Z
	?Scale@CqMatrix@Aqsis@@QAEXM@Z
	?Scale@CqMatrix@Aqsis@@QAEXMMM@Z
	?ShearX@CqMatrix@Aqsis@@QAEXMM@Z
	?ShearY@CqMatrix@Aqsis@@QAEXMM@Z
	?ShearZ@CqMatrix@Aqsis@@QAEXMM@Z
	?Skew@CqMatrix@Aqsis@@QAEXMMMMMMM@Z
	?Translate@CqMatrix@Aqsis@@QAEXABVCqVector3D@2@@Z
	?Translate@CqMatrix@Aqsis@@QAEXMMM@Z
	?TranslateEscapes@CqString@Aqsis@@QBE?AV12@XZ
	?Transpose@CqMatrix@Aqsis@@QBE?AV12@XZ
	?Union@CqBitVector@Aqsis@@QAEAAV12@AAV12@@Z
	?XYZtorgb@CqColor@Aqsis@@QBE?AV12@XZ
	?YIQtorgb@CqColor@Aqsis@@QBE?AV12@XZ
	?cSections@CqSplineCubic@Aqsis@@UBEHXZ
	?gBSplineBasis@Aqsis@@3PAY03MA
	?gBezierBasis@Aqsis@@3PAY03MA
	?gCatmullRomBasis@Aqsis@@3PAY03MA
	?gColBlack@Aqsis@@3VCqColor@1@A
	?gColBlue@Aqsis@@3VCqColor@1@A
	?gColGreen@Aqsis@@3VCqColor@1@A
	?gColRed@Aqsis@@3VCqColor@1@A
	?gColWhite@Aqsis@@3VCqColor@1@A
	?gHermiteBasis@Aqsis@@3PAY03MA
	?gPowerBasis@Aqsis@@3PAY03MA
	?hsltorgb@CqColor@Aqsis@@QBE?AV12@XZ
	?hsvtorgb@CqColor@Aqsis@@QBE?AV12@XZ
	?rgbtoXYZ@CqColor@Aqsis@@QBE?AV12@XZ
	?rgbtoYIQ@CqColor@Aqsis@@QBE?AV12@XZ
	?rgbtohsl@CqColor@Aqsis@@QBE?AV12@XZ
	?rgbtohsv@CqColor@Aqsis@@QBE?AV12@XZ
	?rgbtoxyY@CqColor@Aqsis@@QBE?AV12@XZ
	?xyYtorgb@CqColor@Aqsis@@QBE?AV12@XZ
	??0show_level_buf@Aqsis@@QAE@AAV?$basic_ostream@DU?$char_traits@D@std@@@std@@@Z
	??0fold_duplicates_buf@Aqsis@@QAE@AAV?$basic_ostream@DU?$char_traits@D@std@@@std@@@Z
	??0timestamp_buf@Aqsis@@QAE@AAV?$basic_ostream@DU?$char_traits@D@std@@@std@@@Z
	??0reset_level_buf@Aqsis@@QAE@AAV?$basic_ostream@DU?$char_traits@D@std@@@std@@@Z
	??0filter_by_level_buf@Aqsis@@QAE@W4log_level_t@1@AAV?$basic_ostream@DU?$char_traits@D@std@@@std@@@Z
	??0color_level_buf@Aqsis@@QAE@AAV?$basic_ostream@DU?$char_traits@D@std@@@std@@@Z
	??0ansi_buf@Aqsis@@QAE@AAV?$basic_ostream@DU?$char_traits@D@std@@@std@@@Z
	
	?error@Aqsis@@YAAAV?$basic_ostream@DU?$char_traits@D@std@@@std@@AAV23@@Z
	?debug@Aqsis@@YAAAV?$basic_ostream@DU?$char_traits@D@std@@@std@@AAV23@@Z
	?log@Aqsis@@YAAAV?$basic_ostream@DU?$char_traits@D@std@@@std@@XZ
	?warning@Aqsis@@YAAAV?$basic_ostream@DU?$char_traits@D@std@@@std@@AAV23@@Z
	?critical@Aqsis@@YAAAV?$basic_ostream@DU?$char_traits@D@std@@@std@@AAV23@@Z
	?info@Aqsis@@YAAAV?$basic_ostream@DU?$char_traits@D@std@@@std@@AAV23@@Z
	??0CqMatrix@Aqsis@@QAE@M@Z
	??0CqRandom@Aqsis@@QAE@XZ
	?SetBasis@CqSplineCubic@Aqsis@@QAEXABVCqString@2@@Z
	?RandomFloat@CqRandom@Aqsis@@QAEMXZ
	?FGNoise1@CqNoise@Aqsis@@SAMM@Z
	?FGNoise2@CqNoise@Aqsis@@SAMMM@Z
	?FGNoise3@CqNoise@Aqsis@@SAMABVCqVector3D@2@@Z
	?FGNoise4@CqNoise@Aqsis@@SAMABVCqVector3D@2@M@Z
	?CGNoise1@CqNoise@Aqsis@@SA?AVCqColor@2@M@Z
	?CGNoise2@CqNoise@Aqsis@@SA?AVCqColor@2@MM@Z
	?CGNoise3@CqNoise@Aqsis@@SA?AVCqColor@2@ABVCqVector3D@2@@Z
	?CGNoise4@CqNoise@Aqsis@@SA?AVCqColor@2@ABVCqVector3D@2@M@Z
	?PGNoise1@CqNoise@Aqsis@@SA?AVCqVector3D@2@M@Z
	?PGNoise2@CqNoise@Aqsis@@SA?AVCqVector3D@2@MM@Z
	?PGNoise3@CqNoise@Aqsis@@SA?AVCqVector3D@2@ABV32@@Z
	?PGNoise4@CqNoise@Aqsis@@SA?AVCqVector3D@2@ABV32@M@Z
	?FGPNoise1@CqNoise@Aqsis@@SAMMM@Z
	?FGPNoise2@CqNoise@Aqsis@@SAMMMMM@Z
	?FGPNoise3@CqNoise@Aqsis@@SAMABVCqVector3D@2@0@Z
	?FGPNoise4@CqNoise@Aqsis@@SAMABVCqVector3D@2@M0M@Z
	?CGPNoise1@CqNoise@Aqsis@@SA?AVCqColor@2@MM@Z
	?CGPNoise2@CqNoise@Aqsis@@SA?AVCqColor@2@MMMM@Z
	?CGPNoise3@CqNoise@Aqsis@@SA?AVCqColor@2@ABVCqVector3D@2@0@Z
	?CGPNoise4@CqNoise@Aqsis@@SA?AVCqColor@2@ABVCqVector3D@2@M0M@Z
	?PGPNoise1@CqNoise@Aqsis@@SA?AVCqVector3D@2@MM@Z
	?PGPNoise2@CqNoise@Aqsis@@SA?AVCqVector3D@2@MMMM@Z
	?PGPNoise3@CqNoise@Aqsis@@SA?AVCqVector3D@2@ABV32@0@Z
	?PGPNoise4@CqNoise@Aqsis@@SA?AVCqVector3D@2@ABV32@M0M@Z
	??6Aqsis@@YAAAV?$basic_ostream@DU?$char_traits@D@std@@@std@@AAV12@ABVCqVector3D@0@@Z
	?RandomInt@CqRandom@Aqsis@@QAEII@Z
	??0CqRandom@Aqsis@@QAE@I@Z
	?RandomFloat@CqRandom@Aqsis@@QAEMM@Z
	?ToLower@CqString@Aqsis@@QBE?AV12@XZ
	??9Aqsis@@YA_NABVCqMatrix@0@0@Z
	??0CqRefCount@@QAE@XZ
	??1CqRefCount@@UAE@XZ
	?AddRef@CqRefCount@@QAEXPBDH@Z
	?Release@CqRefCount@@QAEXPBDH@Z
	?RefCount@CqRefCount@@QBEHXZ
